target datalayout = "e-m:e-p270:32:32-p271:32:32-p272:64:64-i64:64-i128:128-f80:128-n8:16:32:64-S128"
target triple = "x86_64-unknown-linux-gnu"

%"class.cvc5::internal::Result" = type { i32, i32, %"class.std::__cxx11::basic_string" }
%"class.std::__cxx11::basic_string" = type { %"struct.std::__cxx11::basic_string<char>::_Alloc_hider", i64, %union.anon }
%"struct.std::__cxx11::basic_string<char>::_Alloc_hider" = type { ptr }
%union.anon = type { i64, [8 x i8] }

@.str.1 = private unnamed_addr constant [4 x i8] c"sat\00", align 1
@.str.3 = private unnamed_addr constant [6 x i8] c"unsat\00", align 1
@.str.10 = private unnamed_addr constant [8 x i8] c"unknown\00", align 1
@.str.19 = private unnamed_addr constant [5 x i8] c"none\00", align 1
@.str.20 = private unnamed_addr constant [3 x i8] c" (\00", align 1
@.str.21 = private unnamed_addr constant [2 x i8] c")\00", align 1
@.str.22 = private unnamed_addr constant [4 x i8] c"???\00", align 1

; Function Attrs: mustprogress nounwind uwtable
define hidden noundef i32 @_ZNK4cvc58internal6Result21getUnknownExplanationEv(ptr noundef nonnull align 8 dereferenceable(40) %this) #5 align 2 {
entry:
  %this.addr = alloca ptr, align 8
  store ptr %this, ptr %this.addr, align 8
  %this1 = load ptr, ptr %this.addr, align 8
  %d_unknownExplanation = getelementptr inbounds %"class.cvc5::internal::Result", ptr %this1, i32 0, i32 1
  %0 = load i32, ptr %d_unknownExplanation, align 4
  ret i32 %0
}

; Function Attrs: mustprogress uwtable
define hidden void @_ZNK4cvc58internal6Result15toStreamDefaultERSo(ptr noundef nonnull align 8 dereferenceable(40) %this, ptr noundef nonnull align 8 dereferenceable(8) %out) #4 align 2 {
entry:
  %this.addr = alloca ptr, align 8
  %out.addr = alloca ptr, align 8
  store ptr %this, ptr %this.addr, align 8
  store ptr %out, ptr %out.addr, align 8
  %this1 = load ptr, ptr %this.addr, align 8
  %d_status = getelementptr inbounds %"class.cvc5::internal::Result", ptr %this1, i32 0, i32 0
  %0 = load i32, ptr %d_status, align 8
  switch i32 %0, label %sw.default [
    i32 0, label %sw.bb
    i32 1, label %sw.bb2
    i32 2, label %sw.bb4
    i32 3, label %sw.bb6
  ]

sw.bb:                                            ; preds = %entry
  %1 = load ptr, ptr %out.addr, align 8
  %call = call noundef nonnull align 8 dereferenceable(8) ptr @_ZStlsISt11char_traitsIcEERSt13basic_ostreamIcT_ES5_PKc(ptr noundef nonnull align 8 dereferenceable(8) %1, ptr noundef @.str.19)
  br label %sw.epilog

sw.bb2:                                           ; preds = %entry
  %2 = load ptr, ptr %out.addr, align 8
  %call3 = call noundef nonnull align 8 dereferenceable(8) ptr @_ZStlsISt11char_traitsIcEERSt13basic_ostreamIcT_ES5_PKc(ptr noundef nonnull align 8 dereferenceable(8) %2, ptr noundef @.str.3)
  br label %sw.epilog

sw.bb4:                                           ; preds = %entry
  %3 = load ptr, ptr %out.addr, align 8
  %call5 = call noundef nonnull align 8 dereferenceable(8) ptr @_ZStlsISt11char_traitsIcEERSt13basic_ostreamIcT_ES5_PKc(ptr noundef nonnull align 8 dereferenceable(8) %3, ptr noundef @.str.1)
  br label %sw.epilog

sw.bb6:                                           ; preds = %entry
  %4 = load ptr, ptr %out.addr, align 8
  %call7 = call noundef nonnull align 8 dereferenceable(8) ptr @_ZStlsISt11char_traitsIcEERSt13basic_ostreamIcT_ES5_PKc(ptr noundef nonnull align 8 dereferenceable(8) %4, ptr noundef @.str.10)
  %call8 = call noundef i32 @_ZNK4cvc58internal6Result21getUnknownExplanationEv(ptr noundef nonnull align 8 dereferenceable(40) %this1)
  %cmp = icmp ne i32 %call8, 9
  br i1 %cmp, label %if.then, label %if.end

if.then:                                          ; preds = %sw.bb6
  %5 = load ptr, ptr %out.addr, align 8
  %call9 = call noundef nonnull align 8 dereferenceable(8) ptr @_ZStlsISt11char_traitsIcEERSt13basic_ostreamIcT_ES5_PKc(ptr noundef nonnull align 8 dereferenceable(8) %5, ptr noundef @.str.20)
  %call10 = call noundef i32 @_ZNK4cvc58internal6Result21getUnknownExplanationEv(ptr noundef nonnull align 8 dereferenceable(40) %this1)
  %call11 = call noundef nonnull align 8 dereferenceable(8) ptr @_ZN4cvc5lsERSoNS_18UnknownExplanationE(ptr noundef nonnull align 8 dereferenceable(8) %call9, i32 noundef %call10)
  %call12 = call noundef nonnull align 8 dereferenceable(8) ptr @_ZStlsISt11char_traitsIcEERSt13basic_ostreamIcT_ES5_PKc(ptr noundef nonnull align 8 dereferenceable(8) %call11, ptr noundef @.str.21)
  br label %if.end

if.end:                                           ; preds = %if.then, %sw.bb6
  br label %sw.epilog

sw.default:                                       ; preds = %entry
  %6 = load ptr, ptr %out.addr, align 8
  %call13 = call noundef nonnull align 8 dereferenceable(8) ptr @_ZStlsISt11char_traitsIcEERSt13basic_ostreamIcT_ES5_PKc(ptr noundef nonnull align 8 dereferenceable(8) %6, ptr noundef @.str.22)
  br label %sw.epilog

sw.epilog:                                        ; preds = %sw.default, %if.end, %sw.bb4, %sw.bb2, %sw.bb
  ret void
}