; Function Attrs: mustprogress uwtable
define hidden void @_ZNK4cvc58internal6Result15toStreamDefaultERSo(ptr nocapture noundef nonnull readonly align 8 dereferenceable(40) %this, ptr noundef nonnull align 8 dereferenceable(8) %out) local_unnamed_addr #3 align 2 {
entry:
  %0 = load i32, ptr %this, align 8
  switch i32 %0, label %sw.default [
    i32 0, label %sw.bb
    i32 1, label %sw.bb2
    i32 2, label %sw.bb4
    i32 3, label %sw.bb6
  ]

sw.bb:                                            ; preds = %entry
  %call = tail call noundef nonnull align 8 dereferenceable(8) ptr @_ZStlsISt11char_traitsIcEERSt13basic_ostreamIcT_ES5_PKc(ptr noundef nonnull align 8 dereferenceable(8) %out, ptr noundef nonnull @.str.19)
  br label %sw.epilog

sw.bb2:                                           ; preds = %entry
  %call3 = tail call noundef nonnull align 8 dereferenceable(8) ptr @_ZStlsISt11char_traitsIcEERSt13basic_ostreamIcT_ES5_PKc(ptr noundef nonnull align 8 dereferenceable(8) %out, ptr noundef nonnull @.str.3)
  br label %sw.epilog

sw.bb4:                                           ; preds = %entry
  %call5 = tail call noundef nonnull align 8 dereferenceable(8) ptr @_ZStlsISt11char_traitsIcEERSt13basic_ostreamIcT_ES5_PKc(ptr noundef nonnull align 8 dereferenceable(8) %out, ptr noundef nonnull @.str.1)
  br label %sw.epilog

sw.bb6:                                           ; preds = %entry
  %call7 = tail call noundef nonnull align 8 dereferenceable(8) ptr @_ZStlsISt11char_traitsIcEERSt13basic_ostreamIcT_ES5_PKc(ptr noundef nonnull align 8 dereferenceable(8) %out, ptr noundef nonnull @.str.10)
  %d_unknownExplanation.i = getelementptr inbounds i8, ptr %this, i64 4
  %1 = load i32, ptr %d_unknownExplanation.i, align 4
  %cmp.not = icmp eq i32 %1, 9
  br i1 %cmp.not, label %sw.epilog, label %if.then

if.then:                                          ; preds = %sw.bb6
  %call9 = tail call noundef nonnull align 8 dereferenceable(8) ptr @_ZStlsISt11char_traitsIcEERSt13basic_ostreamIcT_ES5_PKc(ptr noundef nonnull align 8 dereferenceable(8) %out, ptr noundef nonnull @.str.20)
  %2 = load i32, ptr %d_unknownExplanation.i, align 4
  %call11 = tail call noundef nonnull align 8 dereferenceable(8) ptr @_ZN4cvc5lsERSoNS_18UnknownExplanationE(ptr noundef nonnull align 8 dereferenceable(8) %call9, i32 noundef %2)
  %call12 = tail call noundef nonnull align 8 dereferenceable(8) ptr @_ZStlsISt11char_traitsIcEERSt13basic_ostreamIcT_ES5_PKc(ptr noundef nonnull align 8 dereferenceable(8) %call11, ptr noundef nonnull @.str.21)
  br label %sw.epilog

sw.default:                                       ; preds = %entry
  %call13 = tail call noundef nonnull align 8 dereferenceable(8) ptr @_ZStlsISt11char_traitsIcEERSt13basic_ostreamIcT_ES5_PKc(ptr noundef nonnull align 8 dereferenceable(8) %out, ptr noundef nonnull @.str.22)
  br label %sw.epilog

sw.epilog:                                        ; preds = %sw.bb6, %if.then, %sw.default, %sw.bb4, %sw.bb2, %sw.bb
  ret void
}